target datalayout = "e-m:e-p270:32:32-p271:32:32-p272:64:64-i64:64-i128:128-f80:128-n8:16:32:64-S128"
target triple = "x86_64-pc-linux-gnu"

%struct.crypto_ex_data_st = type { ptr, ptr }
%struct.x509_store_ctx_st = type { ptr, ptr, ptr, ptr, ptr, ptr, ptr, ptr, ptr, ptr, ptr, ptr, ptr, ptr, ptr, ptr, ptr, ptr, i32, i32, ptr, ptr, i32, i32, i32, ptr, ptr, ptr, i32, i32, ptr, %struct.crypto_ex_data_st, ptr, i32, ptr, ptr, ptr }

; Function Attrs: inlinehint nounwind uwtable
define internal ptr @ossl_check_const_X509_sk_type(ptr noundef %0) #3 {
  %2 = alloca ptr, align 8
  store ptr %0, ptr %2, align 8, !tbaa !60
  %3 = load ptr, ptr %2, align 8, !tbaa !60
  ret ptr %3
}

; Function Attrs: nounwind uwtable
define internal ptr @lookup_certs_sk(ptr noundef %0, ptr noundef %1) #0 {
  %3 = alloca ptr, align 8
  %4 = alloca ptr, align 8
  %5 = alloca ptr, align 8
  %6 = alloca ptr, align 8
  %7 = alloca ptr, align 8
  %8 = alloca i32, align 4
  %9 = alloca i32, align 4
  store ptr %0, ptr %4, align 8, !tbaa !40
  store ptr %1, ptr %5, align 8, !tbaa !65
  call void @llvm.lifetime.start.p0(i64 8, ptr %6) #8
  %10 = call ptr @OPENSSL_sk_new_null()
  store ptr %10, ptr %6, align 8, !tbaa !60
  call void @llvm.lifetime.start.p0(i64 8, ptr %7) #8
  call void @llvm.lifetime.start.p0(i64 4, ptr %8) #8
  %11 = load ptr, ptr %6, align 8, !tbaa !60
  %12 = icmp eq ptr %11, null
  br i1 %12, label %13, label %14

13:                                               ; preds = %2
  store ptr null, ptr %3, align 8
  store i32 1, ptr %9, align 4
  br label %51

14:                                               ; preds = %2
  store i32 0, ptr %8, align 4, !tbaa !8
  br label %15

15:                                               ; preds = %46, %14
  %16 = load i32, ptr %8, align 4, !tbaa !8
  %17 = load ptr, ptr %4, align 8, !tbaa !40
  %18 = getelementptr inbounds nuw %struct.x509_store_ctx_st, ptr %17, i32 0, i32 5
  %19 = load ptr, ptr %18, align 8, !tbaa !134
  %20 = call ptr @ossl_check_const_X509_sk_type(ptr noundef %19)
  %21 = call i32 @OPENSSL_sk_num(ptr noundef %20)
  %22 = icmp slt i32 %16, %21
  br i1 %22, label %23, label %49

23:                                               ; preds = %15
  %24 = load ptr, ptr %4, align 8, !tbaa !40
  %25 = getelementptr inbounds nuw %struct.x509_store_ctx_st, ptr %24, i32 0, i32 5
  %26 = load ptr, ptr %25, align 8, !tbaa !134
  %27 = call ptr @ossl_check_const_X509_sk_type(ptr noundef %26)
  %28 = load i32, ptr %8, align 4, !tbaa !8
  %29 = call ptr @OPENSSL_sk_value(ptr noundef %27, i32 noundef %28)
  store ptr %29, ptr %7, align 8, !tbaa !3
  %30 = load ptr, ptr %5, align 8, !tbaa !65
  %31 = load ptr, ptr %7, align 8, !tbaa !3
  %32 = call ptr @X509_get_subject_name(ptr noundef %31)
  %33 = call i32 @X509_NAME_cmp(ptr noundef %30, ptr noundef %32)
  %34 = icmp eq i32 %33, 0
  br i1 %34, label %35, label %45

35:                                               ; preds = %23
  %36 = load ptr, ptr %6, align 8, !tbaa !60
  %37 = load ptr, ptr %7, align 8, !tbaa !3
  %38 = call i32 @X509_add_cert(ptr noundef %36, ptr noundef %37, i32 noundef 1)
  %39 = icmp ne i32 %38, 0
  br i1 %39, label %44, label %40

40:                                               ; preds = %35
  %41 = load ptr, ptr %6, align 8, !tbaa !60
  call void @OSSL_STACK_OF_X509_free(ptr noundef %41)
  %42 = load ptr, ptr %4, align 8, !tbaa !40
  %43 = getelementptr inbounds nuw %struct.x509_store_ctx_st, ptr %42, i32 0, i32 24
  store i32 17, ptr %43, align 8, !tbaa !53
  store ptr null, ptr %3, align 8
  store i32 1, ptr %9, align 4
  br label %51

44:                                               ; preds = %35
  br label %45

45:                                               ; preds = %44, %23
  br label %46

46:                                               ; preds = %45
  %47 = load i32, ptr %8, align 4, !tbaa !8
  %48 = add nsw i32 %47, 1
  store i32 %48, ptr %8, align 4, !tbaa !8
  br label %15, !llvm.loop !175

49:                                               ; preds = %15
  %50 = load ptr, ptr %6, align 8, !tbaa !60
  store ptr %50, ptr %3, align 8
  store i32 1, ptr %9, align 4
  br label %51

51:                                               ; preds = %49, %40, %13
  call void @llvm.lifetime.end.p0(i64 4, ptr %8) #8
  call void @llvm.lifetime.end.p0(i64 8, ptr %7) #8
  call void @llvm.lifetime.end.p0(i64 8, ptr %6) #8
  %52 = load ptr, ptr %3, align 8
  ret ptr %52
}