; Function Attrs: nounwind uwtable
define internal ptr @lookup_certs_sk(ptr noundef captures(none) %0, ptr noundef %1) #0 {
  %3 = tail call ptr @OPENSSL_sk_new_null() #10
  %4 = icmp eq ptr %3, null
  br i1 %4, label %.loopexit, label %.preheader

.preheader:                                       ; preds = %2
  %5 = getelementptr inbounds nuw i8, ptr %0, i64 40
  %6 = load ptr, ptr %5, align 8, !tbaa !132
  %7 = tail call i32 @OPENSSL_sk_num(ptr noundef %6) #10
  %8 = icmp sgt i32 %7, 0
  br i1 %8, label %.lr.ph, label %.loopexit

.lr.ph:                                           ; preds = %.preheader, %18
  %.015 = phi i32 [ %19, %18 ], [ 0, %.preheader ]
  %9 = load ptr, ptr %5, align 8, !tbaa !132
  %10 = tail call ptr @OPENSSL_sk_value(ptr noundef %9, i32 noundef %.015) #10
  %11 = tail call ptr @X509_get_subject_name(ptr noundef %10) #10
  %12 = tail call i32 @X509_NAME_cmp(ptr noundef %1, ptr noundef %11) #10
  %13 = icmp eq i32 %12, 0
  br i1 %13, label %14, label %18

14:                                               ; preds = %.lr.ph
  %15 = tail call i32 @X509_add_cert(ptr noundef nonnull %3, ptr noundef %10, i32 noundef 1) #10
  %.not = icmp eq i32 %15, 0
  br i1 %.not, label %16, label %18

16:                                               ; preds = %14
  tail call void @OSSL_STACK_OF_X509_free(ptr noundef nonnull %3) #10
  %17 = getelementptr inbounds nuw i8, ptr %0, i64 176
  store i32 17, ptr %17, align 8, !tbaa !58
  br label %.loopexit

18:                                               ; preds = %.lr.ph, %14
  %19 = add nuw nsw i32 %.015, 1
  %20 = load ptr, ptr %5, align 8, !tbaa !132
  %21 = tail call i32 @OPENSSL_sk_num(ptr noundef %20) #10
  %22 = icmp slt i32 %19, %21
  br i1 %22, label %.lr.ph, label %.loopexit, !llvm.loop !172

.loopexit:                                        ; preds = %18, %.preheader, %2, %16
  %.013 = phi ptr [ null, %16 ], [ null, %2 ], [ %3, %.preheader ], [ %3, %18 ]
  ret ptr %.013
}